; Function Attrs: mustprogress nofree norecurse nounwind willreturn memory(read, argmem: readwrite, inaccessiblemem: readwrite) uwtable
define dso_local i32 @cmsysProcess_GetExitValue(ptr noundef %0) local_unnamed_addr #13 {
  %.not = icmp eq ptr %0, null
  br i1 %.not, label %15, label %2

2:                                                ; preds = %1
  %3 = getelementptr inbounds nuw i8, ptr %0, i64 2328
  %4 = load ptr, ptr %3, align 8, !tbaa !32
  %.not5 = icmp eq ptr %4, null
  br i1 %.not5, label %15, label %5

5:                                                ; preds = %2
  %6 = getelementptr inbounds nuw i8, ptr %0, i64 8
  %7 = load volatile i32, ptr %6, align 8, !tbaa !22
  %8 = icmp sgt i32 %7, 0
  br i1 %8, label %9, label %15

9:                                                ; preds = %5
  %10 = load volatile i32, ptr %6, align 8, !tbaa !22
  %11 = sext i32 %10 to i64
  %12 = getelementptr %struct.kwsysProcessResults_s, ptr %4, i64 %11
  %13 = getelementptr i8, ptr %12, i64 -1032
  %14 = load i32, ptr %13, align 4, !tbaa !40
  br label %15

15:                                               ; preds = %1, %2, %5, %9
  %16 = phi i32 [ %14, %9 ], [ -1, %5 ], [ -1, %2 ], [ -1, %1 ]
  ret i32 %16
}